Certificate:
    Data:
        Version: 3 (0x2)
        Serial Number: 4097 (0x1001)
    Signature Algorithm: md5WithRSAEncryption
        Issuer: C=US, ST=Utah, L=SLC, O=UU, OU=MSD, CN=YZ/emailAddress=N/A
        Validity
            Not Before: Apr  2 02:00:11 2020 GMT
            Not After : Apr  2 02:00:11 2021 GMT
        Subject: C=US, ST=Utah, O=UU, OU=MSD, CN=Z/emailAddress=N/A
        Subject Public Key Info:
            Public Key Algorithm: rsaEncryption
                Public-Key: (4096 bit)
                Modulus:
                    00:bd:fa:2c:7b:41:23:8b:79:a5:fd:6c:23:d7:a9:
                    8d:06:ae:29:82:5f:94:b9:f7:38:46:b3:cb:33:3f:
                    1d:d5:7d:07:52:87:ee:55:53:c2:9b:87:f2:3d:15:
                    63:c8:f4:e3:e8:a1:0c:08:d7:a1:e6:82:93:8a:21:
                    99:ed:b1:b7:6b:3e:80:7a:0c:05:c1:af:7d:e8:8a:
                    dc:f6:d7:0e:8a:6f:2f:8f:b0:c3:b4:b6:7b:3f:bc:
                    78:e4:b3:ee:f7:9b:99:d3:7a:da:e6:27:51:e6:d5:
                    e2:e7:4f:12:cb:3d:bb:90:3c:ad:46:0f:f4:22:b3:
                    7d:7c:d4:4b:07:d6:ca:7b:d4:25:92:2c:e7:f4:9d:
                    7d:5d:3c:dc:19:81:de:b9:a0:11:4f:a0:ad:27:b5:
                    99:7a:6c:ab:b5:b9:3a:8b:f1:ca:be:22:05:e4:44:
                    12:49:be:4e:7b:3a:37:80:5d:52:cf:c8:a0:26:a1:
                    2f:b3:bf:c7:50:65:41:9a:ca:87:89:3d:7b:50:c7:
                    b8:a3:f2:e7:33:d6:e1:a1:10:1a:2d:5a:9c:61:f7:
                    46:ae:5b:8e:9c:29:93:38:bc:ec:f2:f3:74:42:57:
                    a7:ae:5c:0c:ef:c2:0d:5c:ba:ee:a9:ac:d7:4c:97:
                    d8:fc:8d:2b:7f:42:bf:9c:0e:20:99:38:ca:b8:6d:
                    c3:55:b1:30:f5:c4:18:b5:4f:5a:3e:97:ea:b9:97:
                    6f:7a:1b:22:c3:e9:b9:f3:e7:f4:66:d8:1c:8a:04:
                    1e:58:74:2c:da:86:ae:b2:70:3f:0e:58:bc:01:46:
                    64:cd:6f:75:41:29:84:d3:0e:08:d6:05:13:a3:7a:
                    44:9b:eb:05:3a:ce:b7:af:af:74:db:68:60:db:fb:
                    b5:0d:22:2b:47:5d:89:6a:04:ee:b3:7d:2b:f2:e1:
                    93:a4:bc:8b:25:b2:ac:ba:ff:f3:e0:84:6c:bf:e5:
                    3e:00:6f:4e:a6:0b:b1:5f:75:b3:31:20:30:37:25:
                    4c:4a:54:3d:88:eb:90:d6:f3:7c:0f:72:42:e0:6c:
                    b4:6d:eb:98:16:66:c8:68:7e:be:35:73:92:4b:d7:
                    b4:d0:fb:a9:2c:1a:f6:34:ce:7d:13:81:fb:b0:09:
                    fd:0b:37:4b:43:f7:f7:26:33:af:b0:ab:38:d8:76:
                    bb:39:ad:0c:83:35:28:30:15:7b:1e:7c:22:8f:10:
                    04:f0:67:f2:0e:89:0a:45:5b:f3:40:d9:64:d5:fb:
                    36:0f:b6:19:0e:90:25:c6:7d:10:49:b7:71:66:ff:
                    4a:66:71:b1:ca:f9:c4:0b:ec:8f:2e:1f:d4:4e:53:
                    15:db:ec:e9:a2:5a:9d:02:71:8c:7d:50:55:56:61:
                    1b:8c:c7
                Exponent: 65537 (0x10001)
        X509v3 extensions:
            X509v3 Basic Constraints: 
                CA:FALSE
            Netscape Comment: 
                OpenSSL Generated Certificate
            X509v3 Subject Key Identifier: 
                7B:6B:A3:00:B5:C2:36:12:DC:4E:59:44:61:C4:C1:11:4A:90:3B:1E
            X509v3 Authority Key Identifier: 
                DirName:/C=US/ST=Utah/L=SLC/O=UU/OU=MSD/CN=YZ/emailAddress=N/A
                serial:A9:E4:9D:2F:7F:06:BD:13

    Signature Algorithm: md5WithRSAEncryption
         5f:c1:26:7a:e2:00:c2:80:a3:09:f4:da:f5:f7:06:e1:c6:c5:
         d3:7a:dd:fc:89:24:3a:d7:b2:f2:9f:d9:c0:31:b3:6a:e5:f7:
         05:be:8c:9d:60:69:dc:7b:fe:d5:aa:db:d8:fd:30:73:46:87:
         f9:2d:55:e4:0c:5b:34:4e:56:9c:54:b9:be:d0:ef:25:d9:db:
         f3:42:ad:27:7d:12:77:e6:bb:83:ae:ae:5e:b7:87:c7:5c:62:
         84:bc:f2:9e:1c:76:be:73:f6:7d:f3:fa:8e:14:a3:31:2f:99:
         8f:7d:9b:29:39:31:98:4a:b6:1e:5f:c0:d7:04:80:2c:d2:3b:
         4b:84:27:aa:15:88:56:de:38:7e:d7:4f:ac:0e:4e:39:cc:5c:
         3f:74:db:09:d9:6b:f3:a0:f2:b8:2a:36:cd:eb:c0:d8:7b:e1:
         44:20:5e:47:aa:61:b8:f7:73:0e:24:3e:0d:ec:e8:29:40:c0:
         79:68:08:ab:90:72:0f:4e:85:1b:b0:37:b6:0f:cd:62:c6:0c:
         db:20:f3:0f:48:ba:89:1f:6b:4a:2f:e2:f9:80:8a:fb:13:d3:
         1d:74:02:18:d8:df:75:25:93:95:e3:29:16:25:bd:d4:b9:d4:
         59:db:d8:8d:78:b4:30:0c:c8:6c:26:d2:81:e6:fb:ea:41:56:
         d8:92:54:d4:f2:b2:75:20:cb:b1:55:72:ce:38:0f:ec:24:71:
         db:76:3a:64:67:4a:db:05:fb:0b:f6:ae:0b:ad:38:2c:bb:ac:
         a0:48:c5:f3:ab:6e:17:c1:68:7e:fc:8e:26:d2:a3:c8:20:04:
         fa:0c:f0:c3:52:ea:35:ec:d4:62:5e:f6:0d:57:da:df:57:55:
         27:bb:22:ef:9f:1e:21:fc:c4:22:52:35:77:17:08:e1:6b:2e:
         3a:f2:f9:a9:e6:96:d8:c8:ef:64:5e:af:f6:ef:9c:f3:9b:a1:
         21:33:b4:7f:cb:92:41:3e:b5:3a:fb:92:24:24:0b:be:d4:b6:
         30:be:74:c2:78:e6:05:fc:be:95:bb:c3:4e:f5:1f:b9:f0:0d:
         a9:33:d4:dc:d1:4d:2f:c5:74:0c:3c:df:24:8b:1c:58:f5:e1:
         e3:3b:49:37:c5:35:b2:40:cb:19:e3:6f:e0:c4:95:b7:f0:60:
         79:c5:c2:a9:38:b1:a5:50:4c:17:4a:b5:a9:0e:4a:da:3b:13:
         3a:1c:4e:79:17:9a:2d:7d:97:ba:52:59:65:22:bd:8e:3c:ed:
         60:0b:d3:94:a1:15:bc:a0:5f:9c:39:0a:1c:f6:b1:24:75:a4:
         78:69:68:2a:4e:a7:bd:df:ab:ee:91:e7:29:c2:a7:84:60:6e:
         83:44:26:e7:57:87:67:a0
-----BEGIN CERTIFICATE-----
MIIGGDCCBACgAwIBAgICEAEwDQYJKoZIhvcNAQEEBQAwZjELMAkGA1UEBhMCVVMx
DTALBgNVBAgMBFV0YWgxDDAKBgNVBAcMA1NMQzELMAkGA1UECgwCVVUxDDAKBgNV
BAsMA01TRDELMAkGA1UEAwwCWVoxEjAQBgkqhkiG9w0BCQEWA04vQTAeFw0yMDA0
MDIwMjAwMTFaFw0yMTA0MDIwMjAwMTFaMFcxCzAJBgNVBAYTAlVTMQ0wCwYDVQQI
DARVdGFoMQswCQYDVQQKDAJVVTEMMAoGA1UECwwDTVNEMQowCAYDVQQDDAFaMRIw
EAYJKoZIhvcNAQkBFgNOL0EwggIiMA0GCSqGSIb3DQEBAQUAA4ICDwAwggIKAoIC
AQC9+ix7QSOLeaX9bCPXqY0GrimCX5S59zhGs8szPx3VfQdSh+5VU8Kbh/I9FWPI
9OPooQwI16HmgpOKIZntsbdrPoB6DAXBr33oitz21w6Kby+PsMO0tns/vHjks+73
m5nTetrmJ1Hm1eLnTxLLPbuQPK1GD/Qis3181EsH1sp71CWSLOf0nX1dPNwZgd65
oBFPoK0ntZl6bKu1uTqL8cq+IgXkRBJJvk57OjeAXVLPyKAmoS+zv8dQZUGayoeJ
PXtQx7ij8ucz1uGhEBotWpxh90auW46cKZM4vOzy83RCV6euXAzvwg1cuu6prNdM
l9j8jSt/Qr+cDiCZOMq4bcNVsTD1xBi1T1o+l+q5l296GyLD6bnz5/Rm2ByKBB5Y
dCzahq6ycD8OWLwBRmTNb3VBKYTTDgjWBROjekSb6wU6zrevr3TbaGDb+7UNIitH
XYlqBO6zfSvy4ZOkvIslsqy6//PghGy/5T4Ab06mC7FfdbMxIDA3JUxKVD2I65DW
83wPckLgbLRt65gWZshofr41c5JL17TQ+6ksGvY0zn0TgfuwCf0LN0tD9/cmM6+w
qzjYdrs5rQyDNSgwFXsefCKPEATwZ/IOiQpFW/NA2WTV+zYPthkOkCXGfRBJt3Fm
/0pmcbHK+cQL7I8uH9ROUxXb7OmiWp0CcYx9UFVWYRuMxwIDAQABo4HeMIHbMAkG
A1UdEwQCMAAwLAYJYIZIAYb4QgENBB8WHU9wZW5TU0wgR2VuZXJhdGVkIENlcnRp
ZmljYXRlMB0GA1UdDgQWBBR7a6MAtcI2EtxOWURhxMERSpA7HjCBgAYDVR0jBHkw
d6FqpGgwZjELMAkGA1UEBhMCVVMxDTALBgNVBAgMBFV0YWgxDDAKBgNVBAcMA1NM
QzELMAkGA1UECgwCVVUxDDAKBgNVBAsMA01TRDELMAkGA1UEAwwCWVoxEjAQBgkq
hkiG9w0BCQEWA04vQYIJAKnknS9/Br0TMA0GCSqGSIb3DQEBBAUAA4ICAQBfwSZ6
4gDCgKMJ9Nr19wbhxsXTet38iSQ617Lyn9nAMbNq5fcFvoydYGnce/7VqtvY/TBz
Rof5LVXkDFs0TlacVLm+0O8l2dvzQq0nfRJ35ruDrq5et4fHXGKEvPKeHHa+c/Z9
8/qOFKMxL5mPfZspOTGYSrYeX8DXBIAs0jtLhCeqFYhW3jh+10+sDk45zFw/dNsJ
2WvzoPK4KjbN68DYe+FEIF5HqmG493MOJD4N7OgpQMB5aAirkHIPToUbsDe2D81i
xgzbIPMPSLqJH2tKL+L5gIr7E9MddAIY2N91JZOV4ykWJb3UudRZ29iNeLQwDMhs
JtKB5vvqQVbYklTU8rJ1IMuxVXLOOA/sJHHbdjpkZ0rbBfsL9q4LrTgsu6ygSMXz
q24XwWh+/I4m0qPIIAT6DPDDUuo17NRiXvYNV9rfV1UnuyLvnx4h/MQiUjV3Fwjh
ay468vmp5pbYyO9kXq/275zzm6EhM7R/y5JBPrU6+5IkJAu+1LYwvnTCeOYF/L6V
u8NO9R+58A2pM9Tc0U0vxXQMPN8kixxY9eHjO0k3xTWyQMsZ42/gxJW38GB5xcKp
OLGlUEwXSrWpDkraOxM6HE55F5otfZe6UlllIr2OPO1gC9OUoRW8oF+cOQoc9rEk
daR4aWgqTqe936vukecpwqeEYG6DRCbnV4dnoA==
-----END CERTIFICATE-----
