Certificate:
    Data:
        Version: 3 (0x2)
        Serial Number: 4096 (0x1000)
    Signature Algorithm: md5WithRSAEncryption
        Issuer: C=US, ST=Utah, L=SLC, O=UU, OU=MSD, CN=YZ/emailAddress=N/A
        Validity
            Not Before: Apr  2 01:59:43 2020 GMT
            Not After : Apr  2 01:59:43 2021 GMT
        Subject: C=US, ST=Utah, O=UU, OU=MSD, CN=Y/emailAddress=N/A
        Subject Public Key Info:
            Public Key Algorithm: rsaEncryption
                Public-Key: (4096 bit)
                Modulus:
                    00:b2:72:65:56:e0:24:b4:8b:64:ce:9c:4b:0c:82:
                    bd:de:50:39:a4:62:43:58:61:c2:3c:fb:e3:5e:18:
                    66:d4:e4:2c:68:eb:f7:11:21:37:a6:5a:8b:94:86:
                    b7:58:0e:60:35:e0:36:8b:59:5d:37:1c:0d:44:6d:
                    ed:45:d4:9b:47:db:f5:14:77:52:85:4e:24:99:be:
                    34:71:52:2d:b6:a5:fe:8c:7c:91:0a:5f:52:0e:41:
                    2b:02:de:c4:f0:ae:8d:79:ba:82:50:9a:5a:21:1b:
                    77:18:55:fe:bc:c3:4d:94:44:79:6c:66:4b:59:66:
                    6c:85:32:d9:27:65:3a:f7:1d:74:cc:a8:0a:da:f0:
                    9f:a4:26:2b:d1:e3:fc:b3:4c:4c:b6:ec:2c:7d:a4:
                    b3:69:5f:da:f2:2a:20:c9:e3:f7:5f:75:d4:41:cb:
                    ca:02:1c:9d:aa:a4:85:7b:6d:0b:51:ff:7e:0a:a9:
                    b2:bc:1e:0c:c4:e5:80:2f:b1:e6:bc:8b:da:53:42:
                    ce:df:6c:54:3c:90:c9:61:6a:b4:52:8f:ca:ff:a8:
                    9e:42:66:41:28:de:36:4c:3d:0e:0f:af:af:4c:35:
                    64:15:67:7e:4d:7d:c6:54:48:40:fe:33:8a:b4:17:
                    7d:bd:f1:d2:49:42:7e:df:c5:50:56:11:00:ec:80:
                    85:44:5c:b9:d2:31:ce:f8:80:d7:56:34:14:59:86:
                    70:a5:92:9a:a3:44:11:e9:78:a0:da:fc:31:c5:64:
                    7f:75:72:7e:c0:d6:cf:4d:bf:6a:ee:ab:5b:c8:f5:
                    42:16:7d:5e:90:ed:fd:c1:ce:53:fb:c7:fe:e5:be:
                    e5:cf:39:7e:32:47:67:3e:67:ef:99:0d:ef:60:ba:
                    11:85:a9:e8:d6:93:64:88:0a:17:80:36:61:cd:58:
                    46:ec:a2:d0:9b:e2:9a:e3:85:e6:40:ab:44:51:55:
                    6b:66:a0:7e:07:ff:04:f7:7a:42:ab:d3:de:9c:96:
                    78:09:b8:57:1b:ad:35:42:13:ae:b5:6d:44:46:9a:
                    99:60:d8:ed:a0:34:0e:e6:7b:f5:6a:e3:ea:36:8f:
                    d2:c9:bc:5a:92:29:dd:06:20:37:7a:04:03:32:9a:
                    ce:9a:b1:52:7a:76:c5:ec:3e:37:0a:04:9c:a6:76:
                    68:45:62:16:1d:bd:8a:f8:82:50:81:61:98:ee:d6:
                    b3:42:3f:b7:d5:c3:4f:34:78:4b:17:75:1c:06:f0:
                    9b:06:1b:03:cc:67:2b:9e:d9:44:0f:26:4a:36:9b:
                    28:d3:6a:f8:45:f2:cf:ec:d0:02:f8:00:d1:8e:41:
                    3c:a4:e1:a7:85:e7:42:e9:18:3f:a4:7d:fe:0d:bf:
                    a2:4e:37
                Exponent: 65537 (0x10001)
        X509v3 extensions:
            X509v3 Basic Constraints: 
                CA:FALSE
            Netscape Comment: 
                OpenSSL Generated Certificate
            X509v3 Subject Key Identifier: 
                8A:7B:9E:DE:4B:E1:09:8B:C7:F3:A7:C1:6C:30:03:B3:14:B4:07:34
            X509v3 Authority Key Identifier: 
                DirName:/C=US/ST=Utah/L=SLC/O=UU/OU=MSD/CN=YZ/emailAddress=N/A
                serial:A9:E4:9D:2F:7F:06:BD:13

    Signature Algorithm: md5WithRSAEncryption
         61:2d:0d:fc:51:e6:d1:a9:80:0d:c0:11:ef:e8:ad:2e:c6:e8:
         86:61:05:5b:23:47:2b:56:14:9b:f0:2e:0d:af:d9:e9:e4:42:
         f3:0b:c3:57:c5:64:06:58:94:97:55:8e:16:28:8c:44:17:1b:
         02:85:85:22:b2:ae:e1:3c:34:5a:d9:c0:c6:39:9a:e3:28:14:
         5f:40:e8:f1:bb:53:c2:e5:8c:b9:9e:12:63:d0:2f:06:ce:d0:
         41:76:22:6c:68:35:b9:22:3c:f9:70:04:83:d0:7c:8d:c2:d3:
         33:f8:fb:66:a4:81:99:5e:59:32:2c:08:81:69:a5:57:4d:8d:
         f9:2c:6f:f4:b9:93:21:7e:2d:5b:d4:90:3c:3e:f0:8b:1a:a8:
         3d:cf:99:e7:88:ed:30:4c:c4:89:c6:32:70:5e:cb:13:ff:91:
         f2:b4:ce:51:eb:7b:27:7b:79:a1:ad:d8:90:50:c6:b4:c0:50:
         9f:80:5b:84:82:1b:a7:40:05:4d:a7:9f:ff:9f:74:e2:e2:8b:
         90:32:4f:cb:d9:5b:0a:66:d6:09:c3:01:61:87:b6:28:93:5e:
         45:bc:af:14:f8:3e:db:a6:10:88:ef:8d:67:57:f3:04:2f:e1:
         27:bd:ef:5d:5d:9f:12:22:a9:0b:44:5e:92:a9:d7:2d:96:80:
         ee:4e:6e:ca:49:b8:a2:66:84:58:6e:01:33:1e:e3:13:05:47:
         f8:fb:e4:98:a1:d4:94:59:e9:f1:9f:bb:de:03:7c:79:56:1c:
         c3:9a:fd:d4:fe:20:7d:ca:89:4e:04:e6:e2:01:4d:bc:1d:73:
         21:d6:18:94:f9:a3:7e:f2:f1:27:c1:09:91:75:76:e9:3a:c3:
         92:34:03:cf:3f:0c:90:92:4b:74:e4:e3:48:20:d6:69:a4:d2:
         e3:37:91:e3:22:2c:e3:16:cc:3d:d3:50:1f:7e:b3:92:15:86:
         30:d4:cb:8f:aa:2b:e2:4f:39:9e:31:1d:dc:bb:d2:53:dc:43:
         a6:68:d7:f5:0f:e4:cc:1b:0f:c7:61:bb:3c:a6:01:00:b3:63:
         d4:93:6a:2d:e3:4a:33:f4:ef:4d:c0:2a:89:5e:20:fb:df:17:
         03:ee:23:a9:b0:8e:43:00:37:fc:57:1e:1e:5b:15:5c:42:6e:
         6b:a4:5c:85:6c:fa:bf:5b:49:d4:27:cb:cd:9c:c3:de:f5:a9:
         64:2f:78:76:2b:7c:3a:b6:94:69:a0:05:08:14:ed:66:76:03:
         7a:f8:50:8d:b2:ed:6d:80:18:e6:b3:50:ed:01:88:a5:a2:54:
         ab:d7:5f:c0:b0:8b:4a:3b:6c:ab:e0:d7:28:22:fe:fb:83:1b:
         df:ac:eb:b7:38:e1:18:3d
-----BEGIN CERTIFICATE-----
MIIGGDCCBACgAwIBAgICEAAwDQYJKoZIhvcNAQEEBQAwZjELMAkGA1UEBhMCVVMx
DTALBgNVBAgMBFV0YWgxDDAKBgNVBAcMA1NMQzELMAkGA1UECgwCVVUxDDAKBgNV
BAsMA01TRDELMAkGA1UEAwwCWVoxEjAQBgkqhkiG9w0BCQEWA04vQTAeFw0yMDA0
MDIwMTU5NDNaFw0yMTA0MDIwMTU5NDNaMFcxCzAJBgNVBAYTAlVTMQ0wCwYDVQQI
DARVdGFoMQswCQYDVQQKDAJVVTEMMAoGA1UECwwDTVNEMQowCAYDVQQDDAFZMRIw
EAYJKoZIhvcNAQkBFgNOL0EwggIiMA0GCSqGSIb3DQEBAQUAA4ICDwAwggIKAoIC
AQCycmVW4CS0i2TOnEsMgr3eUDmkYkNYYcI8++NeGGbU5Cxo6/cRITemWouUhrdY
DmA14DaLWV03HA1Ebe1F1JtH2/UUd1KFTiSZvjRxUi22pf6MfJEKX1IOQSsC3sTw
ro15uoJQmlohG3cYVf68w02URHlsZktZZmyFMtknZTr3HXTMqAra8J+kJivR4/yz
TEy27Cx9pLNpX9ryKiDJ4/dfddRBy8oCHJ2qpIV7bQtR/34KqbK8HgzE5YAvsea8
i9pTQs7fbFQ8kMlharRSj8r/qJ5CZkEo3jZMPQ4Pr69MNWQVZ35NfcZUSED+M4q0
F3298dJJQn7fxVBWEQDsgIVEXLnSMc74gNdWNBRZhnClkpqjRBHpeKDa/DHFZH91
cn7A1s9Nv2ruq1vI9UIWfV6Q7f3BzlP7x/7lvuXPOX4yR2c+Z++ZDe9guhGFqejW
k2SICheANmHNWEbsotCb4prjheZAq0RRVWtmoH4H/wT3ekKr096clngJuFcbrTVC
E661bURGmplg2O2gNA7me/Vq4+o2j9LJvFqSKd0GIDd6BAMyms6asVJ6dsXsPjcK
BJymdmhFYhYdvYr4glCBYZju1rNCP7fVw080eEsXdRwG8JsGGwPMZyue2UQPJko2
myjTavhF8s/s0AL4ANGOQTyk4aeF50LpGD+kff4Nv6JONwIDAQABo4HeMIHbMAkG
A1UdEwQCMAAwLAYJYIZIAYb4QgENBB8WHU9wZW5TU0wgR2VuZXJhdGVkIENlcnRp
ZmljYXRlMB0GA1UdDgQWBBSKe57eS+EJi8fzp8FsMAOzFLQHNDCBgAYDVR0jBHkw
d6FqpGgwZjELMAkGA1UEBhMCVVMxDTALBgNVBAgMBFV0YWgxDDAKBgNVBAcMA1NM
QzELMAkGA1UECgwCVVUxDDAKBgNVBAsMA01TRDELMAkGA1UEAwwCWVoxEjAQBgkq
hkiG9w0BCQEWA04vQYIJAKnknS9/Br0TMA0GCSqGSIb3DQEBBAUAA4ICAQBhLQ38
UebRqYANwBHv6K0uxuiGYQVbI0crVhSb8C4Nr9np5ELzC8NXxWQGWJSXVY4WKIxE
FxsChYUisq7hPDRa2cDGOZrjKBRfQOjxu1PC5Yy5nhJj0C8GztBBdiJsaDW5Ijz5
cASD0HyNwtMz+PtmpIGZXlkyLAiBaaVXTY35LG/0uZMhfi1b1JA8PvCLGqg9z5nn
iO0wTMSJxjJwXssT/5HytM5R63sne3mhrdiQUMa0wFCfgFuEghunQAVNp5//n3Ti
4ouQMk/L2VsKZtYJwwFhh7Yok15FvK8U+D7bphCI741nV/MEL+Enve9dXZ8SIqkL
RF6SqdctloDuTm7KSbiiZoRYbgEzHuMTBUf4++SYodSUWenxn7veA3x5VhzDmv3U
/iB9yolOBObiAU28HXMh1hiU+aN+8vEnwQmRdXbpOsOSNAPPPwyQkkt05ONIINZp
pNLjN5HjIizjFsw901AffrOSFYYw1MuPqiviTzmeMR3cu9JT3EOmaNf1D+TMGw/H
Ybs8pgEAs2PUk2ot40oz9O9NwCqJXiD73xcD7iOpsI5DADf8Vx4eWxVcQm5rpFyF
bPq/W0nUJ8vNnMPe9alkL3h2K3w6tpRpoAUIFO1mdgN6+FCNsu1tgBjms1DtAYil
olSr11/AsItKO2yr4NcoIv77gxvfrOu3OOEYPQ==
-----END CERTIFICATE-----
